target datalayout = "e-m:e-p270:32:32-p271:32:32-p272:64:64-i64:64-i128:128-f80:128-n8:16:32:64-S128"
target triple = "x86_64-pc-linux-gnu"

%struct.AVRational = type { i32, i32 }
%struct.AVCodecContext = type { ptr, i32, i32, ptr, i32, i32, ptr, ptr, ptr, i64, i32, i32, ptr, i32, %struct.AVRational, %struct.AVRational, %struct.AVRational, i32, i32, i32, i32, i32, %struct.AVRational, i32, i32, i32, i32, i32, i32, i32, i32, i32, i32, i32, ptr, ptr, i32, float, float, float, float, float, float, float, float, float, i32, i32, i32, i32, i32, i32, i32, i32, i32, i32, i32, i32, ptr, ptr, ptr, i32, i32, i32, i32, i32, i32, i32, i32, i32, i32, %struct.AVChannelLayout, i32, i32, i32, i32, i32, i32, i32, i32, ptr, i32, i32, i32, float, float, i32, i32, i32, i32, i32, ptr, i64, i64, float, float, i32, i32, ptr, ptr, i32, i32, i32, i32, i32, ptr, ptr, ptr, ptr, i32, i32, [8 x i64], i32, i32, i32, i32, i32, i32, i32, ptr, ptr, i32, i32, i32, i32, i32, i32, i32, i32, i32, i32, ptr, ptr, i32, i32, ptr, ptr, ptr, ptr, i32, i32, i64, i32, i32, i64, ptr, i64, ptr, i32, ptr, i32 }
%struct.AVChannelLayout = type { i32, i32, %union.anon, ptr }
%union.anon = type { i64 }
%struct.AVCodecInternal = type { i32, i32, i32, ptr, ptr, ptr, ptr, ptr, ptr, ptr, i32, ptr, ptr, ptr, i32, i32, ptr, i32, ptr, ptr, i32, i32 }
%struct.DecodeContext = type { %struct.AVCodecInternal, i32, i32, i32, i32, i64, i64, i64, i64, i64, ptr, i32, i32, i32 }
%struct.AVFrame = type { [8 x ptr], [8 x i32], ptr, i32, i32, i32, i32, i32, %struct.AVRational, i64, i64, %struct.AVRational, i32, ptr, i32, i32, [8 x ptr], ptr, i32, ptr, i32, i32, i32, i32, i32, i32, i32, i64, ptr, i32, ptr, ptr, i64, i64, i64, i64, ptr, %struct.AVChannelLayout, i64 }

; Function Attrs: inlinehint nounwind uwtable
define internal ptr @av_frame_side_data_get(ptr noundef %0, i32 noundef %1, i32 noundef %2) #7 {
  %4 = alloca ptr, align 8
  %5 = alloca i32, align 4
  %6 = alloca i32, align 4
  store ptr %0, ptr %4, align 8, !tbaa !305
  store i32 %1, ptr %5, align 4, !tbaa !41
  store i32 %2, ptr %6, align 4, !tbaa !41
  %7 = load ptr, ptr %4, align 8, !tbaa !305
  %8 = load i32, ptr %5, align 4, !tbaa !41
  %9 = load i32, ptr %6, align 4, !tbaa !41
  %10 = call ptr @av_frame_side_data_get_c(ptr noundef %7, i32 noundef %8, i32 noundef %9)
  ret ptr %10
}

; Function Attrs: nounwind uwtable
define internal ptr @decode_ctx(ptr noundef %0) #0 {
  %2 = alloca ptr, align 8
  store ptr %0, ptr %2, align 8, !tbaa !31
  %3 = load ptr, ptr %2, align 8, !tbaa !31
  ret ptr %3
}

; Function Attrs: nounwind uwtable
define internal i32 @side_data_pref(ptr noundef %0, ptr noundef %1, ptr noundef %2, i32 noundef %3) #0 {
  %5 = alloca i32, align 4
  %6 = alloca ptr, align 8
  %7 = alloca ptr, align 8
  %8 = alloca ptr, align 8
  %9 = alloca i32, align 4
  %10 = alloca ptr, align 8
  %11 = alloca i32, align 4
  store ptr %0, ptr %6, align 8, !tbaa !4
  store ptr %1, ptr %7, align 8, !tbaa !306
  store ptr %2, ptr %8, align 8, !tbaa !120
  store i32 %3, ptr %9, align 4, !tbaa !41
  call void @llvm.lifetime.start.p0(i64 8, ptr %10) #11
  %12 = load ptr, ptr %6, align 8, !tbaa !4
  %13 = getelementptr inbounds nuw %struct.AVCodecContext, ptr %12, i32 0, i32 7
  %14 = load ptr, ptr %13, align 8, !tbaa !11
  %15 = call ptr @decode_ctx(ptr noundef %14)
  store ptr %15, ptr %10, align 8, !tbaa !32
  %16 = load ptr, ptr %7, align 8, !tbaa !306
  %17 = load ptr, ptr %16, align 8, !tbaa !305
  %18 = load ptr, ptr %8, align 8, !tbaa !120
  %19 = load i32, ptr %18, align 4, !tbaa !41
  %20 = load i32, ptr %9, align 4, !tbaa !41
  %21 = call ptr @av_frame_side_data_get(ptr noundef %17, i32 noundef %19, i32 noundef %20)
  %22 = icmp ne ptr %21, null
  br i1 %22, label %23, label %37

23:                                               ; preds = %4
  %24 = load ptr, ptr %10, align 8, !tbaa !32
  %25 = getelementptr inbounds nuw %struct.DecodeContext, ptr %24, i32 0, i32 9
  %26 = load i64, ptr %25, align 8, !tbaa !293
  %27 = load i32, ptr %9, align 4, !tbaa !41
  %28 = zext i32 %27 to i64
  %29 = shl i64 1, %28
  %30 = and i64 %26, %29
  %31 = icmp ne i64 %30, 0
  br i1 %31, label %32, label %33

32:                                               ; preds = %23
  store i32 1, ptr %5, align 4
  store i32 1, ptr %11, align 4
  br label %38

33:                                               ; preds = %23
  %34 = load ptr, ptr %7, align 8, !tbaa !306
  %35 = load ptr, ptr %8, align 8, !tbaa !120
  %36 = load i32, ptr %9, align 4, !tbaa !41
  call void @av_frame_side_data_remove(ptr noundef %34, ptr noundef %35, i32 noundef %36)
  br label %37

37:                                               ; preds = %33, %4
  store i32 0, ptr %5, align 4
  store i32 1, ptr %11, align 4
  br label %38

38:                                               ; preds = %37, %32
  call void @llvm.lifetime.end.p0(i64 8, ptr %10) #11
  %39 = load i32, ptr %5, align 4
  ret i32 %39
}

; Function Attrs: nounwind uwtable
define i32 @ff_decode_content_light_new(ptr noundef %0, ptr noundef %1, ptr noundef %2) #0 {
  %4 = alloca i32, align 4
  %5 = alloca ptr, align 8
  %6 = alloca ptr, align 8
  %7 = alloca ptr, align 8
  store ptr %0, ptr %5, align 8, !tbaa !4
  store ptr %1, ptr %6, align 8, !tbaa !51
  store ptr %2, ptr %7, align 8, !tbaa !313
  %8 = load ptr, ptr %5, align 8, !tbaa !4
  %9 = load ptr, ptr %6, align 8, !tbaa !51
  %10 = getelementptr inbounds nuw %struct.AVFrame, ptr %9, i32 0, i32 19
  %11 = load ptr, ptr %6, align 8, !tbaa !51
  %12 = getelementptr inbounds nuw %struct.AVFrame, ptr %11, i32 0, i32 20
  %13 = call i32 @side_data_pref(ptr noundef %8, ptr noundef %10, ptr noundef %12, i32 noundef 14)
  %14 = icmp ne i32 %13, 0
  br i1 %14, label %15, label %17

15:                                               ; preds = %3
  %16 = load ptr, ptr %7, align 8, !tbaa !313
  store ptr null, ptr %16, align 8, !tbaa !315
  store i32 0, ptr %4, align 4
  br label %25

17:                                               ; preds = %3
  %18 = load ptr, ptr %6, align 8, !tbaa !51
  %19 = call ptr @av_content_light_metadata_create_side_data(ptr noundef %18)
  %20 = load ptr, ptr %7, align 8, !tbaa !313
  store ptr %19, ptr %20, align 8, !tbaa !315
  %21 = load ptr, ptr %7, align 8, !tbaa !313
  %22 = load ptr, ptr %21, align 8, !tbaa !315
  %23 = icmp ne ptr %22, null
  %24 = select i1 %23, i32 0, i32 -12
  store i32 %24, ptr %4, align 4
  br label %25

25:                                               ; preds = %17, %15
  %26 = load i32, ptr %4, align 4
  ret i32 %26
}