; Function Attrs: nounwind uwtable
define range(i32 -12, 1) i32 @ff_decode_content_light_new(ptr noundef readonly captures(none) %0, ptr noundef %1, ptr noundef writeonly captures(none) initializes((0, 8)) %2) local_unnamed_addr #0 {
  %4 = getelementptr inbounds nuw i8, ptr %1, i64 264
  %5 = getelementptr inbounds nuw i8, ptr %1, i64 272
  %6 = getelementptr i8, ptr %0, i64 40
  %.val = load ptr, ptr %6, align 8, !tbaa !4
  %7 = load ptr, ptr %4, align 8, !tbaa !272
  %8 = load i32, ptr %5, align 4, !tbaa !69
  %9 = tail call ptr @av_frame_side_data_get_c(ptr noundef %7, i32 noundef %8, i32 noundef 14) #10
  %.not.i = icmp eq ptr %9, null
  br i1 %.not.i, label %15, label %10

10:                                               ; preds = %3
  %11 = getelementptr inbounds nuw i8, ptr %.val, i64 200
  %12 = load i64, ptr %11, align 8, !tbaa !262
  %13 = and i64 %12, 16384
  %.not9.i = icmp eq i64 %13, 0
  br i1 %.not9.i, label %14, label %side_data_pref.exit

14:                                               ; preds = %10
  tail call void @av_frame_side_data_remove(ptr noundef nonnull %4, ptr noundef nonnull %5, i32 noundef 14) #10
  br label %15

side_data_pref.exit:                              ; preds = %10
  store ptr null, ptr %2, align 8, !tbaa !275
  br label %18

15:                                               ; preds = %14, %3
  %16 = tail call ptr @av_content_light_metadata_create_side_data(ptr noundef nonnull %1) #10
  store ptr %16, ptr %2, align 8, !tbaa !275
  %.not7 = icmp eq ptr %16, null
  %17 = select i1 %.not7, i32 -12, i32 0
  br label %18

18:                                               ; preds = %15, %side_data_pref.exit
  %.0 = phi i32 [ 0, %side_data_pref.exit ], [ %17, %15 ]
  ret i32 %.0
}